target datalayout = "e-m:e-p270:32:32-p271:32:32-p272:64:64-i64:64-i128:128-f80:128-n8:16:32:64-S128"
target triple = "x86_64-pc-linux-gnu"

; Function Attrs: mustprogress uwtable
define noundef zeroext i1 @_Z11is_hydrogenPKc(ptr noundef %0) #0 {
  %2 = alloca ptr, align 8
  %3 = alloca [30 x i8], align 16
  store ptr %0, ptr %2, align 8, !tbaa !8
  call void @llvm.lifetime.start.p0(i64 30, ptr %3) #15
  %4 = getelementptr inbounds [30 x i8], ptr %3, i64 0, i64 0
  %5 = load ptr, ptr %2, align 8, !tbaa !8
  %6 = call ptr @strcpy(ptr noundef %4, ptr noundef %5) #15
  %7 = getelementptr inbounds [30 x i8], ptr %3, i64 0, i64 0
  call void @_Z4trimPc(ptr noundef %7)
  %8 = getelementptr inbounds [30 x i8], ptr %3, i64 0, i64 0
  %9 = load i8, ptr %8, align 16, !tbaa !25
  %10 = sext i8 %9 to i32
  %11 = icmp eq i32 %10, 72
  br i1 %11, label %25, label %12

12:                                               ; preds = %1
  %13 = getelementptr inbounds [30 x i8], ptr %3, i64 0, i64 0
  %14 = load i8, ptr %13, align 16, !tbaa !25
  %15 = sext i8 %14 to i32
  %16 = call i32 @isdigit(i32 noundef %15) #19
  %17 = icmp ne i32 %16, 0
  br i1 %17, label %18, label %23

18:                                               ; preds = %12
  %19 = getelementptr inbounds [30 x i8], ptr %3, i64 0, i64 1
  %20 = load i8, ptr %19, align 1, !tbaa !25
  %21 = sext i8 %20 to i32
  %22 = icmp eq i32 %21, 72
  br label %23

23:                                               ; preds = %18, %12
  %24 = phi i1 [ false, %12 ], [ %22, %18 ]
  br label %25

25:                                               ; preds = %23, %1
  %26 = phi i1 [ true, %1 ], [ %24, %23 ]
  call void @llvm.lifetime.end.p0(i64 30, ptr %3) #15
  ret i1 %26
}