; Function Attrs: mustprogress uwtable
define noundef zeroext i1 @_Z11is_hydrogenPKc(ptr noundef readonly captures(none) %0) local_unnamed_addr #1 {
  %2 = alloca [30 x i8], align 16
  call void @llvm.lifetime.start.p0(i64 30, ptr nonnull %2) #28
  %3 = call ptr @strcpy(ptr noundef nonnull dereferenceable(1) %2, ptr noundef nonnull dereferenceable(1) %0) #28
  call void @_Z4trimPc(ptr noundef nonnull %2)
  %4 = load i8, ptr %2, align 16, !tbaa !13
  %5 = icmp eq i8 %4, 72
  br i1 %5, label %12, label %6

6:                                                ; preds = %1
  %7 = sext i8 %4 to i32
  %isdigittmp = add nsw i32 %7, -48
  %isdigit = icmp ult i32 %isdigittmp, 10
  %8 = getelementptr inbounds nuw i8, ptr %2, i64 1
  %9 = load i8, ptr %8, align 1
  %10 = icmp eq i8 %9, 72
  %11 = select i1 %isdigit, i1 %10, i1 false
  br label %12

12:                                               ; preds = %6, %1
  %13 = phi i1 [ true, %1 ], [ %11, %6 ]
  call void @llvm.lifetime.end.p0(i64 30, ptr nonnull %2) #28
  ret i1 %13
}